; Function Attrs: mustprogress uwtable
define hidden noundef zeroext i1 @_ZN2cv4face15FacemarkAAMImpl8getFacesERKNS_11_InputArrayERKNS_12_OutputArrayE(ptr nocapture noundef nonnull readonly align 8 dereferenceable(449) %0, ptr noundef nonnull align 8 dereferenceable(24) %1, ptr noundef nonnull align 8 dereferenceable(24) %2) unnamed_addr #3 align 2 {
  %4 = getelementptr inbounds i8, ptr %0, i64 432
  %5 = load ptr, ptr %4, align 8
  %.not = icmp eq ptr %5, null
  br i1 %.not, label %10, label %6

6:                                                ; preds = %3
  %7 = getelementptr inbounds i8, ptr %0, i64 440
  %8 = load ptr, ptr %7, align 8
  %9 = tail call noundef zeroext i1 %5(ptr noundef nonnull align 8 dereferenceable(24) %1, ptr noundef nonnull align 8 dereferenceable(24) %2, ptr noundef %8)
  br label %10

10:                                               ; preds = %3, %6
  %.0 = phi i1 [ %9, %6 ], [ false, %3 ]
  ret i1 %.0
}